target datalayout = "e-m:e-p270:32:32-p271:32:32-p272:64:64-i64:64-i128:128-f80:128-n8:16:32:64-S128"
target triple = "x86_64-pc-linux-gnu"

%struct.mbedtls_ecjpake_context = type { i32, %struct.mbedtls_ecp_group, i32, i32, %struct.mbedtls_ecp_point, %struct.mbedtls_ecp_point, %struct.mbedtls_ecp_point, %struct.mbedtls_ecp_point, %struct.mbedtls_ecp_point, %struct.mbedtls_mpi, %struct.mbedtls_mpi, %struct.mbedtls_mpi }
%struct.mbedtls_ecp_group = type { i32, %struct.mbedtls_mpi, %struct.mbedtls_mpi, %struct.mbedtls_mpi, %struct.mbedtls_ecp_point, %struct.mbedtls_mpi, i64, i64, i32, ptr, ptr, ptr, ptr, ptr, i64 }
%struct.mbedtls_ecp_point = type { %struct.mbedtls_mpi, %struct.mbedtls_mpi, %struct.mbedtls_mpi }
%struct.mbedtls_mpi = type { ptr, i16, i16 }

@ecjpake_id = internal constant [2 x ptr] [ptr @.str.6, ptr @.str.7], align 16

; Function Attrs: nounwind uwtable
define internal i32 @ecjpake_kkp_write(i32 noundef %0, ptr noundef %1, i32 noundef %2, ptr noundef %3, ptr noundef %4, ptr noundef %5, ptr noundef %6, ptr noundef %7, ptr noundef %8, ptr noundef %9, ptr noundef %10) #0 {
  %12 = alloca i32, align 4
  %13 = alloca i32, align 4
  %14 = alloca ptr, align 8
  %15 = alloca i32, align 4
  %16 = alloca ptr, align 8
  %17 = alloca ptr, align 8
  %18 = alloca ptr, align 8
  %19 = alloca ptr, align 8
  %20 = alloca ptr, align 8
  %21 = alloca ptr, align 8
  %22 = alloca ptr, align 8
  %23 = alloca ptr, align 8
  %24 = alloca i32, align 4
  %25 = alloca i64, align 8
  %26 = alloca i32, align 4
  store i32 %0, ptr %13, align 4, !tbaa !19
  store ptr %1, ptr %14, align 8, !tbaa !26
  store i32 %2, ptr %15, align 4, !tbaa !19
  store ptr %3, ptr %16, align 8, !tbaa !28
  store ptr %4, ptr %17, align 8, !tbaa !31
  store ptr %5, ptr %18, align 8, !tbaa !28
  store ptr %6, ptr %19, align 8, !tbaa !20
  store ptr %7, ptr %20, align 8, !tbaa !34
  store ptr %8, ptr %21, align 8, !tbaa !20
  store ptr %9, ptr %22, align 8, !tbaa !30
  store ptr %10, ptr %23, align 8, !tbaa !30
  call void @llvm.lifetime.start.p0(i64 4, ptr %24) #9
  store i32 -110, ptr %24, align 4, !tbaa !19
  call void @llvm.lifetime.start.p0(i64 8, ptr %25) #9
  %27 = load ptr, ptr %21, align 8, !tbaa !20
  %28 = load ptr, ptr %20, align 8, !tbaa !34
  %29 = load ptr, ptr %28, align 8, !tbaa !20
  %30 = icmp ult ptr %27, %29
  br i1 %30, label %31, label %32

31:                                               ; preds = %11
  store i32 -20224, ptr %12, align 4
  store i32 1, ptr %26, align 4
  br label %88

32:                                               ; preds = %11
  br label %33

33:                                               ; preds = %32
  %34 = load ptr, ptr %14, align 8, !tbaa !26
  %35 = load ptr, ptr %16, align 8, !tbaa !28
  %36 = load ptr, ptr %17, align 8, !tbaa !31
  %37 = load ptr, ptr %18, align 8, !tbaa !28
  %38 = load ptr, ptr %22, align 8, !tbaa !30
  %39 = load ptr, ptr %23, align 8, !tbaa !30
  %40 = call i32 @mbedtls_ecp_gen_keypair_base(ptr noundef %34, ptr noundef %35, ptr noundef %36, ptr noundef %37, ptr noundef %38, ptr noundef %39)
  store i32 %40, ptr %24, align 4, !tbaa !19
  %41 = icmp ne i32 %40, 0
  br i1 %41, label %42, label %43

42:                                               ; preds = %33
  br label %86

43:                                               ; preds = %33
  br label %44

44:                                               ; preds = %43
  br label %45

45:                                               ; preds = %44
  br label %46

46:                                               ; preds = %45
  %47 = load ptr, ptr %14, align 8, !tbaa !26
  %48 = load ptr, ptr %18, align 8, !tbaa !28
  %49 = load i32, ptr %15, align 4, !tbaa !19
  %50 = load ptr, ptr %20, align 8, !tbaa !34
  %51 = load ptr, ptr %50, align 8, !tbaa !20
  %52 = load ptr, ptr %21, align 8, !tbaa !20
  %53 = load ptr, ptr %20, align 8, !tbaa !34
  %54 = load ptr, ptr %53, align 8, !tbaa !20
  %55 = ptrtoint ptr %52 to i64
  %56 = ptrtoint ptr %54 to i64
  %57 = sub i64 %55, %56
  %58 = call i32 @mbedtls_ecp_tls_write_point(ptr noundef %47, ptr noundef %48, i32 noundef %49, ptr noundef %25, ptr noundef %51, i64 noundef %57)
  store i32 %58, ptr %24, align 4, !tbaa !19
  %59 = icmp ne i32 %58, 0
  br i1 %59, label %60, label %61

60:                                               ; preds = %46
  br label %86

61:                                               ; preds = %46
  br label %62

62:                                               ; preds = %61
  br label %63

63:                                               ; preds = %62
  %64 = load i64, ptr %25, align 8, !tbaa !22
  %65 = load ptr, ptr %20, align 8, !tbaa !34
  %66 = load ptr, ptr %65, align 8, !tbaa !20
  %67 = getelementptr inbounds nuw i8, ptr %66, i64 %64
  store ptr %67, ptr %65, align 8, !tbaa !20
  br label %68

68:                                               ; preds = %63
  %69 = load i32, ptr %13, align 4, !tbaa !19
  %70 = load ptr, ptr %14, align 8, !tbaa !26
  %71 = load i32, ptr %15, align 4, !tbaa !19
  %72 = load ptr, ptr %16, align 8, !tbaa !28
  %73 = load ptr, ptr %17, align 8, !tbaa !31
  %74 = load ptr, ptr %18, align 8, !tbaa !28
  %75 = load ptr, ptr %19, align 8, !tbaa !20
  %76 = load ptr, ptr %20, align 8, !tbaa !34
  %77 = load ptr, ptr %21, align 8, !tbaa !20
  %78 = load ptr, ptr %22, align 8, !tbaa !30
  %79 = load ptr, ptr %23, align 8, !tbaa !30
  %80 = call i32 @ecjpake_zkp_write(i32 noundef %69, ptr noundef %70, i32 noundef %71, ptr noundef %72, ptr noundef %73, ptr noundef %74, ptr noundef %75, ptr noundef %76, ptr noundef %77, ptr noundef %78, ptr noundef %79)
  store i32 %80, ptr %24, align 4, !tbaa !19
  %81 = icmp ne i32 %80, 0
  br i1 %81, label %82, label %83

82:                                               ; preds = %68
  br label %86

83:                                               ; preds = %68
  br label %84

84:                                               ; preds = %83
  br label %85

85:                                               ; preds = %84
  br label %86

86:                                               ; preds = %85, %82, %60, %42
  %87 = load i32, ptr %24, align 4, !tbaa !19
  store i32 %87, ptr %12, align 4
  store i32 1, ptr %26, align 4
  br label %88

88:                                               ; preds = %86, %31
  call void @llvm.lifetime.end.p0(i64 8, ptr %25) #9
  call void @llvm.lifetime.end.p0(i64 4, ptr %24) #9
  %89 = load i32, ptr %12, align 4
  ret i32 %89
}

; Function Attrs: nounwind uwtable
define internal i32 @ecjpake_kkpp_write(i32 noundef %0, ptr noundef %1, i32 noundef %2, ptr noundef %3, ptr noundef %4, ptr noundef %5, ptr noundef %6, ptr noundef %7, ptr noundef %8, ptr noundef %9, i64 noundef %10, ptr noundef %11, ptr noundef %12, ptr noundef %13) #0 {
  %15 = alloca i32, align 4
  %16 = alloca ptr, align 8
  %17 = alloca i32, align 4
  %18 = alloca ptr, align 8
  %19 = alloca ptr, align 8
  %20 = alloca ptr, align 8
  %21 = alloca ptr, align 8
  %22 = alloca ptr, align 8
  %23 = alloca ptr, align 8
  %24 = alloca ptr, align 8
  %25 = alloca i64, align 8
  %26 = alloca ptr, align 8
  %27 = alloca ptr, align 8
  %28 = alloca ptr, align 8
  %29 = alloca i32, align 4
  %30 = alloca ptr, align 8
  %31 = alloca ptr, align 8
  store i32 %0, ptr %15, align 4, !tbaa !19
  store ptr %1, ptr %16, align 8, !tbaa !26
  store i32 %2, ptr %17, align 4, !tbaa !19
  store ptr %3, ptr %18, align 8, !tbaa !28
  store ptr %4, ptr %19, align 8, !tbaa !31
  store ptr %5, ptr %20, align 8, !tbaa !28
  store ptr %6, ptr %21, align 8, !tbaa !31
  store ptr %7, ptr %22, align 8, !tbaa !28
  store ptr %8, ptr %23, align 8, !tbaa !20
  store ptr %9, ptr %24, align 8, !tbaa !20
  store i64 %10, ptr %25, align 8, !tbaa !22
  store ptr %11, ptr %26, align 8, !tbaa !29
  store ptr %12, ptr %27, align 8, !tbaa !30
  store ptr %13, ptr %28, align 8, !tbaa !30
  call void @llvm.lifetime.start.p0(i64 4, ptr %29) #9
  store i32 -110, ptr %29, align 4, !tbaa !19
  call void @llvm.lifetime.start.p0(i64 8, ptr %30) #9
  %32 = load ptr, ptr %24, align 8, !tbaa !20
  store ptr %32, ptr %30, align 8, !tbaa !20
  call void @llvm.lifetime.start.p0(i64 8, ptr %31) #9
  %33 = load ptr, ptr %24, align 8, !tbaa !20
  %34 = load i64, ptr %25, align 8, !tbaa !22
  %35 = getelementptr inbounds nuw i8, ptr %33, i64 %34
  store ptr %35, ptr %31, align 8, !tbaa !20
  br label %36

36:                                               ; preds = %14
  %37 = load i32, ptr %15, align 4, !tbaa !19
  %38 = load ptr, ptr %16, align 8, !tbaa !26
  %39 = load i32, ptr %17, align 4, !tbaa !19
  %40 = load ptr, ptr %18, align 8, !tbaa !28
  %41 = load ptr, ptr %19, align 8, !tbaa !31
  %42 = load ptr, ptr %20, align 8, !tbaa !28
  %43 = load ptr, ptr %23, align 8, !tbaa !20
  %44 = load ptr, ptr %31, align 8, !tbaa !20
  %45 = load ptr, ptr %27, align 8, !tbaa !30
  %46 = load ptr, ptr %28, align 8, !tbaa !30
  %47 = call i32 @ecjpake_kkp_write(i32 noundef %37, ptr noundef %38, i32 noundef %39, ptr noundef %40, ptr noundef %41, ptr noundef %42, ptr noundef %43, ptr noundef %30, ptr noundef %44, ptr noundef %45, ptr noundef %46)
  store i32 %47, ptr %29, align 4, !tbaa !19
  %48 = icmp ne i32 %47, 0
  br i1 %48, label %49, label %50

49:                                               ; preds = %36
  br label %76

50:                                               ; preds = %36
  br label %51

51:                                               ; preds = %50
  br label %52

52:                                               ; preds = %51
  br label %53

53:                                               ; preds = %52
  %54 = load i32, ptr %15, align 4, !tbaa !19
  %55 = load ptr, ptr %16, align 8, !tbaa !26
  %56 = load i32, ptr %17, align 4, !tbaa !19
  %57 = load ptr, ptr %18, align 8, !tbaa !28
  %58 = load ptr, ptr %21, align 8, !tbaa !31
  %59 = load ptr, ptr %22, align 8, !tbaa !28
  %60 = load ptr, ptr %23, align 8, !tbaa !20
  %61 = load ptr, ptr %31, align 8, !tbaa !20
  %62 = load ptr, ptr %27, align 8, !tbaa !30
  %63 = load ptr, ptr %28, align 8, !tbaa !30
  %64 = call i32 @ecjpake_kkp_write(i32 noundef %54, ptr noundef %55, i32 noundef %56, ptr noundef %57, ptr noundef %58, ptr noundef %59, ptr noundef %60, ptr noundef %30, ptr noundef %61, ptr noundef %62, ptr noundef %63)
  store i32 %64, ptr %29, align 4, !tbaa !19
  %65 = icmp ne i32 %64, 0
  br i1 %65, label %66, label %67

66:                                               ; preds = %53
  br label %76

67:                                               ; preds = %53
  br label %68

68:                                               ; preds = %67
  br label %69

69:                                               ; preds = %68
  %70 = load ptr, ptr %30, align 8, !tbaa !20
  %71 = load ptr, ptr %24, align 8, !tbaa !20
  %72 = ptrtoint ptr %70 to i64
  %73 = ptrtoint ptr %71 to i64
  %74 = sub i64 %72, %73
  %75 = load ptr, ptr %26, align 8, !tbaa !29
  store i64 %74, ptr %75, align 8, !tbaa !22
  br label %76

76:                                               ; preds = %69, %66, %49
  %77 = load i32, ptr %29, align 4, !tbaa !19
  call void @llvm.lifetime.end.p0(i64 8, ptr %31) #9
  call void @llvm.lifetime.end.p0(i64 8, ptr %30) #9
  call void @llvm.lifetime.end.p0(i64 4, ptr %29) #9
  ret i32 %77
}

; Function Attrs: nounwind uwtable
define hidden i32 @mbedtls_ecjpake_write_round_one(ptr noundef %0, ptr noundef %1, i64 noundef %2, ptr noundef %3, ptr noundef %4, ptr noundef %5) #0 {
  %7 = alloca ptr, align 8
  %8 = alloca ptr, align 8
  %9 = alloca i64, align 8
  %10 = alloca ptr, align 8
  %11 = alloca ptr, align 8
  %12 = alloca ptr, align 8
  store ptr %0, ptr %7, align 8, !tbaa !3
  store ptr %1, ptr %8, align 8, !tbaa !20
  store i64 %2, ptr %9, align 8, !tbaa !22
  store ptr %3, ptr %10, align 8, !tbaa !29
  store ptr %4, ptr %11, align 8, !tbaa !30
  store ptr %5, ptr %12, align 8, !tbaa !30
  %13 = load ptr, ptr %7, align 8, !tbaa !3
  %14 = getelementptr inbounds nuw %struct.mbedtls_ecjpake_context, ptr %13, i32 0, i32 0
  %15 = load i32, ptr %14, align 8, !tbaa !8
  %16 = load ptr, ptr %7, align 8, !tbaa !3
  %17 = getelementptr inbounds nuw %struct.mbedtls_ecjpake_context, ptr %16, i32 0, i32 1
  %18 = load ptr, ptr %7, align 8, !tbaa !3
  %19 = getelementptr inbounds nuw %struct.mbedtls_ecjpake_context, ptr %18, i32 0, i32 3
  %20 = load i32, ptr %19, align 4, !tbaa !18
  %21 = load ptr, ptr %7, align 8, !tbaa !3
  %22 = getelementptr inbounds nuw %struct.mbedtls_ecjpake_context, ptr %21, i32 0, i32 1
  %23 = getelementptr inbounds nuw %struct.mbedtls_ecp_group, ptr %22, i32 0, i32 4
  %24 = load ptr, ptr %7, align 8, !tbaa !3
  %25 = getelementptr inbounds nuw %struct.mbedtls_ecjpake_context, ptr %24, i32 0, i32 9
  %26 = load ptr, ptr %7, align 8, !tbaa !3
  %27 = getelementptr inbounds nuw %struct.mbedtls_ecjpake_context, ptr %26, i32 0, i32 4
  %28 = load ptr, ptr %7, align 8, !tbaa !3
  %29 = getelementptr inbounds nuw %struct.mbedtls_ecjpake_context, ptr %28, i32 0, i32 10
  %30 = load ptr, ptr %7, align 8, !tbaa !3
  %31 = getelementptr inbounds nuw %struct.mbedtls_ecjpake_context, ptr %30, i32 0, i32 5
  %32 = load ptr, ptr %7, align 8, !tbaa !3
  %33 = getelementptr inbounds nuw %struct.mbedtls_ecjpake_context, ptr %32, i32 0, i32 2
  %34 = load i32, ptr %33, align 8, !tbaa !23
  %35 = zext i32 %34 to i64
  %36 = getelementptr inbounds nuw [2 x ptr], ptr @ecjpake_id, i64 0, i64 %35
  %37 = load ptr, ptr %36, align 8, !tbaa !20
  %38 = load ptr, ptr %8, align 8, !tbaa !20
  %39 = load i64, ptr %9, align 8, !tbaa !22
  %40 = load ptr, ptr %10, align 8, !tbaa !29
  %41 = load ptr, ptr %11, align 8, !tbaa !30
  %42 = load ptr, ptr %12, align 8, !tbaa !30
  %43 = call i32 @ecjpake_kkpp_write(i32 noundef %15, ptr noundef %17, i32 noundef %20, ptr noundef %23, ptr noundef %25, ptr noundef %27, ptr noundef %29, ptr noundef %31, ptr noundef %37, ptr noundef %38, i64 noundef %39, ptr noundef %40, ptr noundef %41, ptr noundef %42)
  ret i32 %43
}