; Function Attrs: nounwind uwtable
define hidden i32 @mbedtls_ecjpake_write_round_one(ptr noundef %0, ptr noundef %1, i64 noundef %2, ptr noundef writeonly captures(none) %3, ptr noundef %4, ptr noundef %5) local_unnamed_addr #0 {
  %7 = alloca i64, align 8
  %8 = alloca i64, align 8
  %9 = alloca ptr, align 8
  %10 = load i32, ptr %0, align 8, !tbaa !3
  %11 = getelementptr inbounds nuw i8, ptr %0, i64 8
  %12 = getelementptr inbounds nuw i8, ptr %0, i64 204
  %13 = load i32, ptr %12, align 4, !tbaa !16
  %14 = getelementptr inbounds nuw i8, ptr %0, i64 64
  %15 = getelementptr inbounds nuw i8, ptr %0, i64 448
  %16 = getelementptr inbounds nuw i8, ptr %0, i64 208
  %17 = getelementptr inbounds nuw i8, ptr %0, i64 464
  %18 = getelementptr inbounds nuw i8, ptr %0, i64 256
  %19 = getelementptr inbounds nuw i8, ptr %0, i64 200
  %20 = load i32, ptr %19, align 8, !tbaa !17
  %21 = zext i32 %20 to i64
  %22 = getelementptr inbounds nuw [2 x ptr], ptr @ecjpake_id, i64 0, i64 %21
  %23 = load ptr, ptr %22, align 8, !tbaa !20
  call void @llvm.lifetime.start.p0(i64 8, ptr nonnull %9) #15
  %24 = getelementptr inbounds nuw i8, ptr %1, i64 %2
  call void @llvm.lifetime.start.p0(i64 8, ptr nonnull %8) #15
  %25 = tail call i32 @mbedtls_ecp_gen_keypair_base(ptr noundef nonnull %11, ptr noundef nonnull %14, ptr noundef nonnull %15, ptr noundef nonnull %16, ptr noundef %4, ptr noundef %5) #15
  %.not.i.i = icmp eq i32 %25, 0
  br i1 %.not.i.i, label %26, label %ecjpake_kkp_write.exit.thread.i

26:                                               ; preds = %6
  %27 = call i32 @mbedtls_ecp_tls_write_point(ptr noundef nonnull %11, ptr noundef nonnull %16, i32 noundef %13, ptr noundef nonnull %8, ptr noundef %1, i64 noundef %2) #15
  %.not31.i.i = icmp eq i32 %27, 0
  br i1 %.not31.i.i, label %ecjpake_kkp_write.exit.i, label %ecjpake_kkp_write.exit.thread.i

ecjpake_kkp_write.exit.thread.i:                  ; preds = %26, %6
  %.027.i.ph.i = phi i32 [ %27, %26 ], [ %25, %6 ]
  call void @llvm.lifetime.end.p0(i64 8, ptr nonnull %8) #15
  br label %ecjpake_kkpp_write.exit

ecjpake_kkp_write.exit.i:                         ; preds = %26
  %28 = load i64, ptr %8, align 8, !tbaa !22
  %29 = getelementptr inbounds nuw i8, ptr %1, i64 %28
  store ptr %29, ptr %9, align 8, !tbaa !20
  %30 = call fastcc i32 @ecjpake_zkp_write(i32 noundef %10, ptr noundef nonnull %11, i32 noundef %13, ptr noundef nonnull %14, ptr noundef nonnull %15, ptr noundef nonnull %16, ptr noundef readonly %23, ptr noundef nonnull %9, ptr noundef %24, ptr noundef %4, ptr noundef %5)
  call void @llvm.lifetime.end.p0(i64 8, ptr nonnull %8) #15
  %.not.i = icmp eq i32 %30, 0
  br i1 %.not.i, label %31, label %ecjpake_kkpp_write.exit

31:                                               ; preds = %ecjpake_kkp_write.exit.i
  call void @llvm.lifetime.start.p0(i64 8, ptr nonnull %7) #15
  %32 = load ptr, ptr %9, align 8, !tbaa !20
  %33 = icmp ult ptr %24, %32
  br i1 %33, label %ecjpake_kkp_write.exit31.thread.i, label %34

34:                                               ; preds = %31
  %35 = call i32 @mbedtls_ecp_gen_keypair_base(ptr noundef nonnull %11, ptr noundef nonnull %14, ptr noundef nonnull %17, ptr noundef nonnull %18, ptr noundef %4, ptr noundef %5) #15
  %.not.i28.i = icmp eq i32 %35, 0
  br i1 %.not.i28.i, label %36, label %ecjpake_kkp_write.exit31.thread.i

36:                                               ; preds = %34
  %37 = ptrtoint ptr %24 to i64
  %38 = ptrtoint ptr %32 to i64
  %39 = sub i64 %37, %38
  %40 = call i32 @mbedtls_ecp_tls_write_point(ptr noundef nonnull %11, ptr noundef nonnull %18, i32 noundef %13, ptr noundef nonnull %7, ptr noundef %32, i64 noundef %39) #15
  %.not31.i30.i = icmp eq i32 %40, 0
  br i1 %.not31.i30.i, label %ecjpake_kkp_write.exit31.i, label %ecjpake_kkp_write.exit31.thread.i

ecjpake_kkp_write.exit31.thread.i:                ; preds = %36, %34, %31
  %.027.i29.ph.i = phi i32 [ %40, %36 ], [ %35, %34 ], [ -20224, %31 ]
  call void @llvm.lifetime.end.p0(i64 8, ptr nonnull %7) #15
  br label %ecjpake_kkpp_write.exit

ecjpake_kkp_write.exit31.i:                       ; preds = %36
  %41 = load i64, ptr %7, align 8, !tbaa !22
  %42 = getelementptr inbounds nuw i8, ptr %32, i64 %41
  store ptr %42, ptr %9, align 8, !tbaa !20
  %43 = call fastcc i32 @ecjpake_zkp_write(i32 noundef %10, ptr noundef nonnull %11, i32 noundef %13, ptr noundef nonnull %14, ptr noundef nonnull %17, ptr noundef nonnull %18, ptr noundef readonly %23, ptr noundef nonnull %9, ptr noundef %24, ptr noundef %4, ptr noundef %5)
  call void @llvm.lifetime.end.p0(i64 8, ptr nonnull %7) #15
  %.not27.i = icmp eq i32 %43, 0
  br i1 %.not27.i, label %44, label %ecjpake_kkpp_write.exit

44:                                               ; preds = %ecjpake_kkp_write.exit31.i
  %45 = load ptr, ptr %9, align 8, !tbaa !20
  %46 = ptrtoint ptr %45 to i64
  %47 = ptrtoint ptr %1 to i64
  %48 = sub i64 %46, %47
  store i64 %48, ptr %3, align 8, !tbaa !22
  br label %ecjpake_kkpp_write.exit

ecjpake_kkpp_write.exit:                          ; preds = %ecjpake_kkp_write.exit.thread.i, %ecjpake_kkp_write.exit.i, %ecjpake_kkp_write.exit31.thread.i, %ecjpake_kkp_write.exit31.i, %44
  %.0.i = phi i32 [ %30, %ecjpake_kkp_write.exit.i ], [ %43, %ecjpake_kkp_write.exit31.i ], [ 0, %44 ], [ %.027.i.ph.i, %ecjpake_kkp_write.exit.thread.i ], [ %.027.i29.ph.i, %ecjpake_kkp_write.exit31.thread.i ]
  call void @llvm.lifetime.end.p0(i64 8, ptr nonnull %9) #15
  ret i32 %.0.i
}